target datalayout = "e-m:e-p270:32:32-p271:32:32-p272:64:64-i64:64-i128:128-f80:128-n8:16:32:64-S128"
target triple = "x86_64-pc-linux-gnu"

%struct.Abc_Ntk_t_ = type { i32, i32, ptr, ptr, ptr, ptr, ptr, ptr, ptr, ptr, ptr, ptr, ptr, [11 x i32], i32, i32, i32, i32, ptr, i32, ptr, ptr, i32, i32, i32, double, i32, %struct.Vec_Int_t_, ptr, ptr, ptr, ptr, ptr, float, i32, ptr, ptr, ptr, ptr, ptr, ptr, ptr, ptr, ptr, ptr, ptr, ptr, ptr, ptr, ptr, ptr, ptr, ptr, ptr, ptr, ptr }
%struct.Vec_Int_t_ = type { i32, i32, ptr }
%struct.Abc_ManTime_t_ = type { %struct.Abc_Time_t_, %struct.Abc_Time_t_, ptr, ptr, %struct.Abc_Time_t_, %struct.Abc_Time_t_, ptr, ptr }
%struct.Abc_Time_t_ = type { float, float }

; Function Attrs: nounwind uwtable
define float @Abc_NtkReadDefaultRequiredWorst(ptr noundef %0) #0 {
  %2 = alloca ptr, align 8
  store ptr %0, ptr %2, align 8
  %3 = load ptr, ptr %2, align 8
  %4 = getelementptr inbounds %struct.Abc_Ntk_t_, ptr %3, i32 0, i32 31
  %5 = load ptr, ptr %4, align 8
  %6 = getelementptr inbounds %struct.Abc_ManTime_t_, ptr %5, i32 0, i32 1
  %7 = getelementptr inbounds %struct.Abc_Time_t_, ptr %6, i32 0, i32 0
  %8 = load float, ptr %7, align 8
  %9 = fpext float %8 to double
  %10 = load ptr, ptr %2, align 8
  %11 = getelementptr inbounds %struct.Abc_Ntk_t_, ptr %10, i32 0, i32 31
  %12 = load ptr, ptr %11, align 8
  %13 = getelementptr inbounds %struct.Abc_ManTime_t_, ptr %12, i32 0, i32 1
  %14 = getelementptr inbounds %struct.Abc_Time_t_, ptr %13, i32 0, i32 1
  %15 = load float, ptr %14, align 4
  %16 = fpext float %15 to double
  %17 = fmul double 5.000000e-01, %16
  %18 = call double @llvm.fmuladd.f64(double 5.000000e-01, double %9, double %17)
  %19 = fptrunc double %18 to float
  ret float %19
}