; Function Attrs: mustprogress nofree norecurse nosync nounwind willreturn memory(read, inaccessiblemem: none) uwtable
define float @Abc_NtkReadDefaultRequiredWorst(ptr noundef readonly captures(none) %0) local_unnamed_addr #1 {
  %2 = getelementptr inbounds nuw i8, ptr %0, i64 264
  %3 = load ptr, ptr %2, align 8
  %4 = getelementptr inbounds nuw i8, ptr %3, i64 8
  %5 = load float, ptr %4, align 8
  %6 = fpext float %5 to double
  %7 = getelementptr inbounds nuw i8, ptr %3, i64 12
  %8 = load float, ptr %7, align 4
  %9 = fpext float %8 to double
  %10 = fmul double %9, 5.000000e-01
  %11 = tail call double @llvm.fmuladd.f64(double %6, double 5.000000e-01, double %10)
  %12 = fptrunc double %11 to float
  ret float %12
}